; Function Attrs: mustprogress nofree norecurse nosync nounwind memory(readwrite, inaccessiblemem: none) uwtable
define void @_ZN3gmx23exclusionBlocksToBlockaENS_8ArrayRefIKNS_14ExclusionBlockEEEP8t_blocka(ptr readonly %0, ptr readnone %1, ptr noundef readonly captures(none) %2) local_unnamed_addr #6 {
  %.not33 = icmp eq ptr %0, %1
  %.phi.trans.insert = getelementptr inbounds nuw i8, ptr %2, i64 8
  %.pre = load ptr, ptr %.phi.trans.insert, align 8, !tbaa !11
  br i1 %.not33, label %._crit_edge39, label %.lr.ph38

.lr.ph38:                                         ; preds = %3
  %4 = getelementptr inbounds nuw i8, ptr %2, i64 24
  br label %7

._crit_edge39.loopexit:                           ; preds = %._crit_edge
  %5 = and i64 %indvars.iv.next44, 4294967295
  br label %._crit_edge39

._crit_edge39:                                    ; preds = %3, %._crit_edge39.loopexit
  %.020.lcssa = phi i64 [ %5, %._crit_edge39.loopexit ], [ 0, %3 ]
  %.0.lcssa = phi i32 [ %19, %._crit_edge39.loopexit ], [ 0, %3 ]
  %6 = getelementptr inbounds nuw i32, ptr %.pre, i64 %.020.lcssa
  store i32 %.0.lcssa, ptr %6, align 4, !tbaa !14
  ret void

7:                                                ; preds = %.lr.ph38, %._crit_edge
  %indvars.iv43 = phi i64 [ 0, %.lr.ph38 ], [ %indvars.iv.next44, %._crit_edge ]
  %.036 = phi i32 [ 0, %.lr.ph38 ], [ %19, %._crit_edge ]
  %.sroa.026.034 = phi ptr [ %0, %.lr.ph38 ], [ %20, %._crit_edge ]
  %8 = getelementptr inbounds nuw i32, ptr %.pre, i64 %indvars.iv43
  store i32 %.036, ptr %8, align 4, !tbaa !14
  %9 = load ptr, ptr %.sroa.026.034, align 8, !tbaa !21
  %10 = getelementptr inbounds nuw i8, ptr %.sroa.026.034, i64 8
  %11 = load ptr, ptr %10, align 8, !tbaa !21
  %.not2930 = icmp eq ptr %9, %11
  br i1 %.not2930, label %._crit_edge, label %.lr.ph

.lr.ph:                                           ; preds = %7
  %12 = load ptr, ptr %4, align 8, !tbaa !18
  %13 = sext i32 %.036 to i64
  %invariant.gep = getelementptr i32, ptr %12, i64 %13
  br label %21

._crit_edge:                                      ; preds = %21, %7
  %14 = ptrtoint ptr %11 to i64
  %15 = ptrtoint ptr %9 to i64
  %16 = sub i64 %14, %15
  %17 = lshr exact i64 %16, 2
  %18 = trunc i64 %17 to i32
  %19 = add nsw i32 %.036, %18
  %indvars.iv.next44 = add nuw nsw i64 %indvars.iv43, 1
  %20 = getelementptr inbounds nuw i8, ptr %.sroa.026.034, i64 24
  %.not = icmp eq ptr %20, %1
  br i1 %.not, label %._crit_edge39.loopexit, label %7

21:                                               ; preds = %.lr.ph, %21
  %indvars.iv = phi i64 [ 0, %.lr.ph ], [ %indvars.iv.next, %21 ]
  %.sroa.023.031 = phi ptr [ %9, %.lr.ph ], [ %23, %21 ]
  %22 = load i32, ptr %.sroa.023.031, align 4, !tbaa !14
  %gep = getelementptr i32, ptr %invariant.gep, i64 %indvars.iv
  store i32 %22, ptr %gep, align 4, !tbaa !14
  %indvars.iv.next = add nuw nsw i64 %indvars.iv, 1
  %23 = getelementptr inbounds nuw i8, ptr %.sroa.023.031, i64 4
  %.not29 = icmp eq ptr %23, %11
  br i1 %.not29, label %._crit_edge, label %21
}